target datalayout = "e-m:e-p270:32:32-p271:32:32-p272:64:64-i64:64-i128:128-f80:128-n8:16:32:64-S128"
target triple = "x86_64-pc-linux-gnu"

%struct.AVRational = type { i32, i32 }
%struct.ReadInterval = type { i32, i64, i64, i32, i32, i32, i32, i32 }

@.str.1 = private unnamed_addr constant [2 x i8] c"\0A\00", align 1
@.str.169 = private unnamed_addr constant [1 x i8] zeroinitializer, align 1
@.str.185 = private unnamed_addr constant [6 x i8] c"id:%d\00", align 1
@.str.186 = private unnamed_addr constant [12 x i8] c" start:%s%s\00", align 1
@.str.187 = private unnamed_addr constant [2 x i8] c"+\00", align 1
@.str.188 = private unnamed_addr constant [11 x i8] c" start:N/A\00", align 1
@.str.189 = private unnamed_addr constant [8 x i8] c" end:%s\00", align 1
@.str.190 = private unnamed_addr constant [5 x i8] c"#%ld\00", align 1
@.str.191 = private unnamed_addr constant [3 x i8] c"%s\00", align 1
@.str.192 = private unnamed_addr constant [9 x i8] c" end:N/A\00", align 1

; Function Attrs: inlinehint nounwind uwtable
define internal ptr @av_ts_make_time_string(ptr noundef %0, i64 noundef %1, ptr noundef %2) #5 {
  %4 = alloca ptr, align 8
  %5 = alloca i64, align 8
  %6 = alloca ptr, align 8
  store ptr %0, ptr %4, align 8, !tbaa !4
  store i64 %1, ptr %5, align 8, !tbaa !114
  store ptr %2, ptr %6, align 8, !tbaa !145
  %7 = load ptr, ptr %4, align 8, !tbaa !4
  %8 = load i64, ptr %5, align 8, !tbaa !114
  %9 = load ptr, ptr %6, align 8, !tbaa !145
  %10 = load i64, ptr %9, align 4
  %11 = call ptr @av_ts_make_time_string2(ptr noundef %7, i64 noundef %8, i64 %10)
  ret ptr %11
}

; Function Attrs: nounwind uwtable
define internal void @log_read_interval(ptr noundef %0, ptr noundef %1, i32 noundef %2) #0 {
  %4 = alloca ptr, align 8
  %5 = alloca ptr, align 8
  %6 = alloca i32, align 4
  %7 = alloca [32 x i8], align 1
  %8 = alloca %struct.AVRational, align 4
  %9 = alloca [32 x i8], align 1
  %10 = alloca %struct.AVRational, align 4
  store ptr %0, ptr %4, align 8, !tbaa !129
  store ptr %1, ptr %5, align 8, !tbaa !37
  store i32 %2, ptr %6, align 4, !tbaa !11
  %11 = load ptr, ptr %5, align 8, !tbaa !37
  %12 = load i32, ptr %6, align 4, !tbaa !11
  %13 = load ptr, ptr %4, align 8, !tbaa !129
  %14 = getelementptr inbounds nuw %struct.ReadInterval, ptr %13, i32 0, i32 0
  %15 = load i32, ptr %14, align 8, !tbaa !131
  call void (ptr, i32, ptr, ...) @av_log(ptr noundef %11, i32 noundef %12, ptr noundef @.str.185, i32 noundef %15)
  %16 = load ptr, ptr %4, align 8, !tbaa !129
  %17 = getelementptr inbounds nuw %struct.ReadInterval, ptr %16, i32 0, i32 3
  %18 = load i32, ptr %17, align 8, !tbaa !134
  %19 = icmp ne i32 %18, 0
  br i1 %19, label %20, label %35

20:                                               ; preds = %3
  %21 = load ptr, ptr %5, align 8, !tbaa !37
  %22 = load i32, ptr %6, align 4, !tbaa !11
  %23 = load ptr, ptr %4, align 8, !tbaa !129
  %24 = getelementptr inbounds nuw %struct.ReadInterval, ptr %23, i32 0, i32 5
  %25 = load i32, ptr %24, align 8, !tbaa !135
  %26 = icmp ne i32 %25, 0
  %27 = select i1 %26, ptr @.str.187, ptr @.str.169
  call void @llvm.memset.p0.i64(ptr align 1 %7, i8 0, i64 32, i1 false)
  %28 = getelementptr inbounds [32 x i8], ptr %7, i64 0, i64 0
  %29 = load ptr, ptr %4, align 8, !tbaa !129
  %30 = getelementptr inbounds nuw %struct.ReadInterval, ptr %29, i32 0, i32 1
  %31 = load i64, ptr %30, align 8, !tbaa !142
  %32 = getelementptr inbounds nuw %struct.AVRational, ptr %8, i32 0, i32 0
  store i32 1, ptr %32, align 4, !tbaa !143
  %33 = getelementptr inbounds nuw %struct.AVRational, ptr %8, i32 0, i32 1
  store i32 1000000, ptr %33, align 4, !tbaa !144
  %34 = call ptr @av_ts_make_time_string(ptr noundef %28, i64 noundef %31, ptr noundef %8)
  call void (ptr, i32, ptr, ...) @av_log(ptr noundef %21, i32 noundef %22, ptr noundef @.str.186, ptr noundef %27, ptr noundef %34)
  br label %38

35:                                               ; preds = %3
  %36 = load ptr, ptr %5, align 8, !tbaa !37
  %37 = load i32, ptr %6, align 4, !tbaa !11
  call void (ptr, i32, ptr, ...) @av_log(ptr noundef %36, i32 noundef %37, ptr noundef @.str.188)
  br label %38

38:                                               ; preds = %35, %20
  %39 = load ptr, ptr %4, align 8, !tbaa !129
  %40 = getelementptr inbounds nuw %struct.ReadInterval, ptr %39, i32 0, i32 4
  %41 = load i32, ptr %40, align 4, !tbaa !136
  %42 = icmp ne i32 %41, 0
  br i1 %42, label %43, label %72

43:                                               ; preds = %38
  %44 = load ptr, ptr %5, align 8, !tbaa !37
  %45 = load i32, ptr %6, align 4, !tbaa !11
  %46 = load ptr, ptr %4, align 8, !tbaa !129
  %47 = getelementptr inbounds nuw %struct.ReadInterval, ptr %46, i32 0, i32 6
  %48 = load i32, ptr %47, align 4, !tbaa !137
  %49 = icmp ne i32 %48, 0
  %50 = select i1 %49, ptr @.str.187, ptr @.str.169
  call void (ptr, i32, ptr, ...) @av_log(ptr noundef %44, i32 noundef %45, ptr noundef @.str.189, ptr noundef %50)
  %51 = load ptr, ptr %4, align 8, !tbaa !129
  %52 = getelementptr inbounds nuw %struct.ReadInterval, ptr %51, i32 0, i32 7
  %53 = load i32, ptr %52, align 8, !tbaa !138
  %54 = icmp ne i32 %53, 0
  br i1 %54, label %55, label %61

55:                                               ; preds = %43
  %56 = load ptr, ptr %5, align 8, !tbaa !37
  %57 = load i32, ptr %6, align 4, !tbaa !11
  %58 = load ptr, ptr %4, align 8, !tbaa !129
  %59 = getelementptr inbounds nuw %struct.ReadInterval, ptr %58, i32 0, i32 2
  %60 = load i64, ptr %59, align 8, !tbaa !141
  call void (ptr, i32, ptr, ...) @av_log(ptr noundef %56, i32 noundef %57, ptr noundef @.str.190, i64 noundef %60)
  br label %71

61:                                               ; preds = %43
  %62 = load ptr, ptr %5, align 8, !tbaa !37
  %63 = load i32, ptr %6, align 4, !tbaa !11
  call void @llvm.memset.p0.i64(ptr align 1 %9, i8 0, i64 32, i1 false)
  %64 = getelementptr inbounds [32 x i8], ptr %9, i64 0, i64 0
  %65 = load ptr, ptr %4, align 8, !tbaa !129
  %66 = getelementptr inbounds nuw %struct.ReadInterval, ptr %65, i32 0, i32 2
  %67 = load i64, ptr %66, align 8, !tbaa !141
  %68 = getelementptr inbounds nuw %struct.AVRational, ptr %10, i32 0, i32 0
  store i32 1, ptr %68, align 4, !tbaa !143
  %69 = getelementptr inbounds nuw %struct.AVRational, ptr %10, i32 0, i32 1
  store i32 1000000, ptr %69, align 4, !tbaa !144
  %70 = call ptr @av_ts_make_time_string(ptr noundef %64, i64 noundef %67, ptr noundef %10)
  call void (ptr, i32, ptr, ...) @av_log(ptr noundef %62, i32 noundef %63, ptr noundef @.str.191, ptr noundef %70)
  br label %71

71:                                               ; preds = %61, %55
  br label %75

72:                                               ; preds = %38
  %73 = load ptr, ptr %5, align 8, !tbaa !37
  %74 = load i32, ptr %6, align 4, !tbaa !11
  call void (ptr, i32, ptr, ...) @av_log(ptr noundef %73, i32 noundef %74, ptr noundef @.str.192)
  br label %75

75:                                               ; preds = %72, %71
  %76 = load ptr, ptr %5, align 8, !tbaa !37
  %77 = load i32, ptr %6, align 4, !tbaa !11
  call void (ptr, i32, ptr, ...) @av_log(ptr noundef %76, i32 noundef %77, ptr noundef @.str.1)
  ret void
}