; Function Attrs: nounwind uwtable
define internal fastcc void @log_read_interval(ptr noundef readonly captures(none) %0, i32 noundef range(i32 16, 41) %1) unnamed_addr #0 {
  %3 = alloca [32 x i8], align 1
  %4 = alloca [32 x i8], align 1
  %5 = load i32, ptr %0, align 8, !tbaa !139
  tail call void (ptr, i32, ptr, ...) @av_log(ptr noundef null, i32 noundef %1, ptr noundef nonnull @.str.185, i32 noundef %5) #20
  %6 = getelementptr inbounds nuw i8, ptr %0, i64 24
  %7 = load i32, ptr %6, align 8, !tbaa !141
  %.not = icmp eq i32 %7, 0
  br i1 %.not, label %15, label %8

8:                                                ; preds = %2
  %9 = getelementptr inbounds nuw i8, ptr %0, i64 32
  %10 = load i32, ptr %9, align 8, !tbaa !142
  %.not24 = icmp eq i32 %10, 0
  %11 = select i1 %.not24, ptr @.str.169, ptr @.str.187
  call void @llvm.memset.p0.i64(ptr noundef nonnull align 1 dereferenceable(32) %3, i8 0, i64 32, i1 false)
  %12 = getelementptr inbounds nuw i8, ptr %0, i64 8
  %13 = load i64, ptr %12, align 8, !tbaa !152
  %14 = call ptr @av_ts_make_time_string2(ptr noundef nonnull %3, i64 noundef %13, i64 4294967296000001) #20
  call void (ptr, i32, ptr, ...) @av_log(ptr noundef null, i32 noundef %1, ptr noundef nonnull @.str.186, ptr noundef nonnull %11, ptr noundef %14) #20
  br label %16

15:                                               ; preds = %2
  tail call void (ptr, i32, ptr, ...) @av_log(ptr noundef null, i32 noundef %1, ptr noundef nonnull @.str.188) #20
  br label %16

16:                                               ; preds = %15, %8
  %17 = getelementptr inbounds nuw i8, ptr %0, i64 28
  %18 = load i32, ptr %17, align 4, !tbaa !143
  %.not25 = icmp eq i32 %18, 0
  br i1 %.not25, label %32, label %19

19:                                               ; preds = %16
  %20 = getelementptr inbounds nuw i8, ptr %0, i64 36
  %21 = load i32, ptr %20, align 4, !tbaa !144
  %.not26 = icmp eq i32 %21, 0
  %22 = select i1 %.not26, ptr @.str.169, ptr @.str.187
  call void (ptr, i32, ptr, ...) @av_log(ptr noundef null, i32 noundef %1, ptr noundef nonnull @.str.189, ptr noundef nonnull %22) #20
  %23 = getelementptr inbounds nuw i8, ptr %0, i64 40
  %24 = load i32, ptr %23, align 8, !tbaa !145
  %.not27 = icmp eq i32 %24, 0
  br i1 %.not27, label %28, label %25

25:                                               ; preds = %19
  %26 = getelementptr inbounds nuw i8, ptr %0, i64 16
  %27 = load i64, ptr %26, align 8, !tbaa !147
  call void (ptr, i32, ptr, ...) @av_log(ptr noundef null, i32 noundef %1, ptr noundef nonnull @.str.190, i64 noundef %27) #20
  br label %33

28:                                               ; preds = %19
  call void @llvm.memset.p0.i64(ptr noundef nonnull align 1 dereferenceable(32) %4, i8 0, i64 32, i1 false)
  %29 = getelementptr inbounds nuw i8, ptr %0, i64 16
  %30 = load i64, ptr %29, align 8, !tbaa !147
  %31 = call ptr @av_ts_make_time_string2(ptr noundef nonnull %4, i64 noundef %30, i64 4294967296000001) #20
  call void (ptr, i32, ptr, ...) @av_log(ptr noundef null, i32 noundef %1, ptr noundef nonnull @.str.191, ptr noundef %31) #20
  br label %33

32:                                               ; preds = %16
  call void (ptr, i32, ptr, ...) @av_log(ptr noundef null, i32 noundef %1, ptr noundef nonnull @.str.192) #20
  br label %33

33:                                               ; preds = %25, %28, %32
  call void (ptr, i32, ptr, ...) @av_log(ptr noundef null, i32 noundef %1, ptr noundef nonnull @.str.1) #20
  ret void
}